(lp1
S'http://www.indeed.com/rc/clk?jk=b4ebcf33e0a98e3d'
p2
aS'http://www.indeed.com/rc/clk?jk=dde00bbd87e8dfa1'
p3
aS'http://www.indeed.com/rc/clk?jk=b07ba0f482161d02'
p4
aS'http://www.indeed.com/rc/clk?jk=3c6b4fd8eb3f4724'
p5
aS'http://www.indeed.com/rc/clk?jk=8ee9dbea568ec8d1'
p6
aS'http://www.indeed.com/rc/clk?jk=b754379c6bcc6ce9'
p7
aS'http://www.indeed.com/rc/clk?jk=860d3e361b5642ba'
p8
aS'http://www.indeed.com/rc/clk?jk=29fe9a4a71315d2d'
p9
aS'http://www.indeed.com/rc/clk?jk=22cacc01df79d8b9'
p10
aS'http://www.indeed.com/rc/clk?jk=09df9648e07ac8ee'
p11
aS'http://www.indeed.com/rc/clk?jk=806c688080f25bb5'
p12
aS'http://www.indeed.com/rc/clk?jk=b0f11faea6a2eafe'
p13
aS'http://www.indeed.com/rc/clk?jk=aeb8628557050cef'
p14
aS'http://www.indeed.com/rc/clk?jk=ce9615d53fb96c18'
p15
aS'http://www.indeed.com/rc/clk?jk=0e6570408b562e55'
p16
aS'http://www.indeed.com/rc/clk?jk=45d332879979105b'
p17
aS'http://www.indeed.com/rc/clk?jk=d5dc49d2b85c5329'
p18
aS'http://www.indeed.com/rc/clk?jk=fa5d5b32f9d502e6'
p19
aS'http://www.indeed.com/rc/clk?jk=1826911b44aca476'
p20
aS'http://www.indeed.com/rc/clk?jk=8bd2e4171572927e'
p21
aS'http://www.indeed.com/rc/clk?jk=f137e6a4267784a8'
p22
aS'http://www.indeed.com/rc/clk?jk=a64dbf46bad6eb83'
p23
aS'http://www.indeed.com/rc/clk?jk=16f404910766b124'
p24
aS'http://www.indeed.com/rc/clk?jk=e23099e2b2f1e030'
p25
aS'http://www.indeed.com/rc/clk?jk=6f38edd9a0641d0f'
p26
aS'http://www.indeed.com/rc/clk?jk=1309b9942284aaa0'
p27
aS'http://www.indeed.com/rc/clk?jk=28858263df70625c'
p28
aS'http://www.indeed.com/rc/clk?jk=af10e063e77bd613'
p29
aS'http://www.indeed.com/rc/clk?jk=140032f0e2887668'
p30
aS'http://www.indeed.com/rc/clk?jk=e559b6259e45a3ba'
p31
aS'http://www.indeed.com/rc/clk?jk=32132092f83519f2'
p32
aS'http://www.indeed.com/rc/clk?jk=11cf38718f8c5eec'
p33
aS'http://www.indeed.com/rc/clk?jk=f5d182f58df6fd06'
p34
aS'http://www.indeed.com/rc/clk?jk=bf9b484d6f77594d'
p35
aS'http://www.indeed.com/rc/clk?jk=dca026f2b64d99df'
p36
aS'http://www.indeed.com/rc/clk?jk=317c98ed62d4cc83'
p37
aS'http://www.indeed.com/rc/clk?jk=9f2cedcafa44aa73'
p38
aS'http://www.indeed.com/rc/clk?jk=904785aee8e81524'
p39
aS'http://www.indeed.com/rc/clk?jk=a91afaa2f614ea17'
p40
aS'http://www.indeed.com/rc/clk?jk=1f21679a5060389f'
p41
aS'http://www.indeed.com/rc/clk?jk=f1afa0f1edb1052e'
p42
aS'http://www.indeed.com/rc/clk?jk=ccba1e58b743d323'
p43
aS'http://www.indeed.com/rc/clk?jk=60d2efc50dde8348'
p44
aS'http://www.indeed.com/rc/clk?jk=5ce6a6df6f1e1825'
p45
aS'http://www.indeed.com/rc/clk?jk=0146f9e0754c7379'
p46
aS'http://www.indeed.com/rc/clk?jk=c5f168fd451da2fa'
p47
aS'http://www.indeed.com/rc/clk?jk=b20776b479205d6d'
p48
aS'http://www.indeed.com/rc/clk?jk=f2507c4e37d4a771'
p49
aS'http://www.indeed.com/rc/clk?jk=5c0856587cfe9589'
p50
aS'http://www.indeed.com/rc/clk?jk=76920d906a4593c7'
p51
aS'http://www.indeed.com/rc/clk?jk=930d8afffdb9740a'
p52
aS'http://www.indeed.com/rc/clk?jk=da65a88426e07b13'
p53
aS'http://www.indeed.com/rc/clk?jk=e0dc4a1bd5c36240'
p54
aS'http://www.indeed.com/rc/clk?jk=1d06e4a21de9dddb'
p55
aS'http://www.indeed.com/rc/clk?jk=edf1d6fd18ac8d61'
p56
aS'http://www.indeed.com/rc/clk?jk=e270396d3c819ed4'
p57
aS'http://www.indeed.com/rc/clk?jk=c033d176ea5a13bf'
p58
aS'http://www.indeed.com/rc/clk?jk=d4fc4636b2aefca5'
p59
aS'http://www.indeed.com/rc/clk?jk=52e54528f2a92033'
p60
aS'http://www.indeed.com/rc/clk?jk=bcb530f17f5d8577'
p61
aS'http://www.indeed.com/rc/clk?jk=fd7d05c92b09eb1d'
p62
aS'http://www.indeed.com/rc/clk?jk=3d5b7dc9fdc3e32e'
p63
aS'http://www.indeed.com/rc/clk?jk=cf39702e8f8ac1c9'
p64
aS'http://www.indeed.com/rc/clk?jk=8de506eba2487bdf'
p65
aS'http://www.indeed.com/rc/clk?jk=98d8cc149b3ebd41'
p66
aS'http://www.indeed.com/rc/clk?jk=9827bc6572f136ef'
p67
aS'http://www.indeed.com/rc/clk?jk=d7a68ede873fbe12'
p68
aS'http://www.indeed.com/rc/clk?jk=e8c6832e42fd1f0a'
p69
aS'http://www.indeed.com/rc/clk?jk=70735a7f7cb16c2b'
p70
aS'http://www.indeed.com/rc/clk?jk=941575c07f717ebc'
p71
aS'http://www.indeed.com/rc/clk?jk=59c9eb617bb0e81c'
p72
aS'http://www.indeed.com/rc/clk?jk=b171b0a603894b28'
p73
aS'http://www.indeed.com/rc/clk?jk=4b91025736c71fe3'
p74
aS'http://www.indeed.com/rc/clk?jk=d65ac8bc6bbab04d'
p75
aS'http://www.indeed.com/rc/clk?jk=0f6881a3ca50c0c7'
p76
aS'http://www.indeed.com/rc/clk?jk=59b7a5897c68d058'
p77
aS'http://www.indeed.com/rc/clk?jk=c19421c53f00c890'
p78
aS'http://www.indeed.com/rc/clk?jk=9656f2844cdc28f2'
p79
aS'http://www.indeed.com/rc/clk?jk=28dc740774348e13'
p80
aS'http://www.indeed.com/rc/clk?jk=0f35264ceb2c6d40'
p81
aS'http://www.indeed.com/rc/clk?jk=ab64aa16c1d0e81c'
p82
aS'http://www.indeed.com/rc/clk?jk=e46c6c542aa4e111'
p83
aS'http://www.indeed.com/rc/clk?jk=d94dfe5b1911c7ad'
p84
aS'http://www.indeed.com/rc/clk?jk=a1f0d343f3088ce6'
p85
aS'http://www.indeed.com/rc/clk?jk=330f2fb889754d2b'
p86
aS'http://www.indeed.com/rc/clk?jk=72f2cc02ea959d83'
p87
aS'http://www.indeed.com/rc/clk?jk=ea2a7db0960a3bcc'
p88
aS'http://www.indeed.com/rc/clk?jk=77d666286884ea2a'
p89
aS'http://www.indeed.com/rc/clk?jk=7beca1b9d2e5926c'
p90
aS'http://www.indeed.com/rc/clk?jk=c2af148c4e31470e'
p91
aS'http://www.indeed.com/rc/clk?jk=46cdbbd2f5a93a98'
p92
aS'http://www.indeed.com/rc/clk?jk=a61c7b3fc0badb57'
p93
aS'http://www.indeed.com/rc/clk?jk=96647bfc69ed2cec'
p94
aS'http://www.indeed.com/rc/clk?jk=51c28f587efba089'
p95
aS'http://www.indeed.com/rc/clk?jk=a0aec8629f4b490d'
p96
aS'http://www.indeed.com/rc/clk?jk=1c15eebd890dae29'
p97
aS'http://www.indeed.com/rc/clk?jk=e743464f4bcf9517'
p98
aS'http://www.indeed.com/rc/clk?jk=06a163aacb670359'
p99
aS'http://www.indeed.com/rc/clk?jk=511adf1a65636eac'
p100
aS'http://www.indeed.com/rc/clk?jk=e265f339374839d5'
p101
aS'http://www.indeed.com/rc/clk?jk=ed2d12d396ae04ed'
p102
aS'http://www.indeed.com/rc/clk?jk=863889176849deb5'
p103
aS'http://www.indeed.com/rc/clk?jk=d639ab724ea0f70f'
p104
aS'http://www.indeed.com/rc/clk?jk=181c2eb2a0997ce7'
p105
aS'http://www.indeed.com/rc/clk?jk=e169e3e130593e06'
p106
aS'http://www.indeed.com/rc/clk?jk=600a1c373f4dca13'
p107
aS'http://www.indeed.com/rc/clk?jk=89a92c28d2ebbd0e'
p108
aS'http://www.indeed.com/rc/clk?jk=6bfd57ee6a5c914e'
p109
aS'http://www.indeed.com/rc/clk?jk=2a30d0c044d7088a'
p110
aS'http://www.indeed.com/rc/clk?jk=a4da2514ebf34afe'
p111
aS'http://www.indeed.com/rc/clk?jk=519874877f35bfe8'
p112
aS'http://www.indeed.com/rc/clk?jk=6f9be3854c9d53e9'
p113
aS'http://www.indeed.com/rc/clk?jk=f3d1a4d4d7bb6eb8'
p114
aS'http://www.indeed.com/rc/clk?jk=a5c142a07eafbbf3'
p115
aS'http://www.indeed.com/rc/clk?jk=14777a837760f869'
p116
aS'http://www.indeed.com/rc/clk?jk=58d70a6878f29ae0'
p117
aS'http://www.indeed.com/rc/clk?jk=87e6c6968e7e7430'
p118
aS'http://www.indeed.com/rc/clk?jk=7367100c6f1a1222'
p119
aS'http://www.indeed.com/rc/clk?jk=00d371d52c5c2df1'
p120
aS'http://www.indeed.com/rc/clk?jk=51e85837edadeaa2'
p121
aS'http://www.indeed.com/rc/clk?jk=3d5244719a18dbd2'
p122
aS'http://www.indeed.com/rc/clk?jk=4f72ffc8c8025b5d'
p123
aS'http://www.indeed.com/rc/clk?jk=d5a1d0f8a4f76ee0'
p124
aS'http://www.indeed.com/rc/clk?jk=61fba206bdc34a3e'
p125
aS'http://www.indeed.com/rc/clk?jk=3d52cef7eaf36f3f'
p126
aS'http://www.indeed.com/rc/clk?jk=107ce78f118a2808'
p127
aS'http://www.indeed.com/rc/clk?jk=771dff6feecaee2c'
p128
aS'http://www.indeed.com/rc/clk?jk=222f1a9098879473'
p129
aS'http://www.indeed.com/rc/clk?jk=df5764a1ae33351b'
p130
aS'http://www.indeed.com/rc/clk?jk=6f59f3c4d9d69892'
p131
aS'http://www.indeed.com/rc/clk?jk=73d0a99ea2121b82'
p132
aS'http://www.indeed.com/rc/clk?jk=053306fb38608ac9'
p133
aS'http://www.indeed.com/rc/clk?jk=b542bf77a93b8159'
p134
aS'http://www.indeed.com/rc/clk?jk=696620f3067b6892'
p135
aS'http://www.indeed.com/rc/clk?jk=7c39ffe58fdedc95'
p136
aS'http://www.indeed.com/rc/clk?jk=e1abb77772042724'
p137
aS'http://www.indeed.com/rc/clk?jk=c59daaf208de99d2'
p138
aS'http://www.indeed.com/rc/clk?jk=09c340ca7989ad1f'
p139
aS'http://www.indeed.com/rc/clk?jk=44116b989b46b967'
p140
aS'http://www.indeed.com/rc/clk?jk=662a75caa9ec0e3b'
p141
aS'http://www.indeed.com/rc/clk?jk=b3a41331e74cd3a0'
p142
aS'http://www.indeed.com/rc/clk?jk=6e9e98acde7db642'
p143
aS'http://www.indeed.com/rc/clk?jk=bf904701f8f9ac37'
p144
aS'http://www.indeed.com/rc/clk?jk=4c9b6788b9de759d'
p145
aS'http://www.indeed.com/rc/clk?jk=a944e0644691f288'
p146
aS'http://www.indeed.com/rc/clk?jk=c8e8b6fa0530acd9'
p147
aS'http://www.indeed.com/rc/clk?jk=a26fa6f44e38bc00'
p148
aS'http://www.indeed.com/rc/clk?jk=7260178a08abb1dc'
p149
aS'http://www.indeed.com/rc/clk?jk=66efb7a1829302dd'
p150
aS'http://www.indeed.com/rc/clk?jk=8fdbf932ee2c728a'
p151
aS'http://www.indeed.com/rc/clk?jk=66f602c161d0fbc7'
p152
aS'http://www.indeed.com/rc/clk?jk=30989fc740368e4e'
p153
aS'http://www.indeed.com/rc/clk?jk=1cc304738f1e374a'
p154
aS'http://www.indeed.com/rc/clk?jk=d82c75667bb6b88b'
p155
aS'http://www.indeed.com/rc/clk?jk=4e986de488757117'
p156
aS'http://www.indeed.com/rc/clk?jk=eac303a7ef5758cf'
p157
aS'http://www.indeed.com/rc/clk?jk=31bae9477995da3b'
p158
aS'http://www.indeed.com/rc/clk?jk=2d7333e6a3753186'
p159
aS'http://www.indeed.com/rc/clk?jk=cd0776c50417662e'
p160
aS'http://www.indeed.com/rc/clk?jk=05699c20938dba0b'
p161
aS'http://www.indeed.com/rc/clk?jk=caf4809a8e0f1228'
p162
aS'http://www.indeed.com/rc/clk?jk=10b4f7611feb4fec'
p163
aS'http://www.indeed.com/rc/clk?jk=5693935d15ec151d'
p164
aS'http://www.indeed.com/rc/clk?jk=851c4bcc521b4c75'
p165
aS'http://www.indeed.com/rc/clk?jk=e85394a87879e77d'
p166
aS'http://www.indeed.com/rc/clk?jk=67db5db0df8f2c97'
p167
aS'http://www.indeed.com/rc/clk?jk=7a8450e176ed7ee5'
p168
aS'http://www.indeed.com/rc/clk?jk=e4dcc54f44fac6ba'
p169
aS'http://www.indeed.com/rc/clk?jk=3e5ce1d18b335b5a'
p170
aS'http://www.indeed.com/rc/clk?jk=26dc7b619a164f5a'
p171
aS'http://www.indeed.com/rc/clk?jk=1f3861d3ef837bf9'
p172
aS'http://www.indeed.com/rc/clk?jk=3d5f372c97399426'
p173
aS'http://www.indeed.com/rc/clk?jk=2ff378a35601ece7'
p174
aS'http://www.indeed.com/rc/clk?jk=f8c93ae46467da2e'
p175
aS'http://www.indeed.com/rc/clk?jk=a4ec5fd18bffac4a'
p176
aS'http://www.indeed.com/rc/clk?jk=17d15c3974fe11ba'
p177
aS'http://www.indeed.com/rc/clk?jk=127fbb9026a9084d'
p178
aS'http://www.indeed.com/rc/clk?jk=1dadb33b14f90b16'
p179
aS'http://www.indeed.com/rc/clk?jk=f4257adf4efca928'
p180
aS'http://www.indeed.com/rc/clk?jk=6860cb7e39467285'
p181
aS'http://www.indeed.com/rc/clk?jk=f21e8e50eb06dc00'
p182
aS'http://www.indeed.com/rc/clk?jk=880e4e3515535172'
p183
aS'http://www.indeed.com/rc/clk?jk=504f06d4cb38cbba'
p184
aS'http://www.indeed.com/rc/clk?jk=1000ea81fa011787'
p185
aS'http://www.indeed.com/rc/clk?jk=c47875346c66c600'
p186
aS'http://www.indeed.com/rc/clk?jk=4cab835ece8a99b1'
p187
aS'http://www.indeed.com/rc/clk?jk=2caf136957bdea69'
p188
aS'http://www.indeed.com/rc/clk?jk=b0dc465e2a808535'
p189
aS'http://www.indeed.com/rc/clk?jk=119ac529c5a63f68'
p190
aS'http://www.indeed.com/rc/clk?jk=bfcf2e705bfa5ebb'
p191
aS'http://www.indeed.com/rc/clk?jk=2137d8e7fe285b22'
p192
aS'http://www.indeed.com/rc/clk?jk=b5df315da9167e28'
p193
aS'http://www.indeed.com/rc/clk?jk=960ec008cb6f254d'
p194
aS'http://www.indeed.com/rc/clk?jk=792bb3b6871313d4'
p195
aS'http://www.indeed.com/rc/clk?jk=bf50b284ea0450fd'
p196
aS'http://www.indeed.com/rc/clk?jk=98c753a2f68fb541'
p197
aS'http://www.indeed.com/rc/clk?jk=e9712ff1a6ec19e4'
p198
aS'http://www.indeed.com/rc/clk?jk=a0e2e3a4c9524fcc'
p199
aS'http://www.indeed.com/rc/clk?jk=49bf68616900eade'
p200
aS'http://www.indeed.com/rc/clk?jk=b7453c0c300ce80e'
p201
aS'http://www.indeed.com/rc/clk?jk=c5ba658580ac6d57'
p202
aS'http://www.indeed.com/rc/clk?jk=69d1b7a82c160b58'
p203
aS'http://www.indeed.com/rc/clk?jk=0e51ff2d3d51a667'
p204
aS'http://www.indeed.com/rc/clk?jk=965c238fa1ff78eb'
p205
aS'http://www.indeed.com/rc/clk?jk=30de315524ced38b'
p206
aS'http://www.indeed.com/rc/clk?jk=cab424d49c079a77'
p207
aS'http://www.indeed.com/rc/clk?jk=cd3671de51f09bfc'
p208
aS'http://www.indeed.com/rc/clk?jk=5164b0cd8df6d3f4'
p209
aS'http://www.indeed.com/rc/clk?jk=a584e9b5378cdf51'
p210
aS'http://www.indeed.com/rc/clk?jk=ef3e003b2e2cfc41'
p211
aS'http://www.indeed.com/rc/clk?jk=e7860d8f50cb8b87'
p212
aS'http://www.indeed.com/rc/clk?jk=0fbbd107a771e5c6'
p213
aS'http://www.indeed.com/rc/clk?jk=b4f1b07d6b2489f7'
p214
aS'http://www.indeed.com/rc/clk?jk=eb6197e32c1d0cd8'
p215
aS'http://www.indeed.com/rc/clk?jk=efef2f82b3adb062'
p216
aS'http://www.indeed.com/rc/clk?jk=434488d21b7f8124'
p217
aS'http://www.indeed.com/rc/clk?jk=6b8971dd0ab6c23b'
p218
aS'http://www.indeed.com/rc/clk?jk=fb0ffc7024b5b7db'
p219
aS'http://www.indeed.com/rc/clk?jk=4f0ad7f7f373b28c'
p220
aS'http://www.indeed.com/rc/clk?jk=f45385842d49a106'
p221
aS'http://www.indeed.com/rc/clk?jk=c6fa711805856f7d'
p222
aS'http://www.indeed.com/rc/clk?jk=dcf1d5c1f6b53216'
p223
aS'http://www.indeed.com/rc/clk?jk=2edcce6d91684baf'
p224
aS'http://www.indeed.com/rc/clk?jk=c8966f1f4b25b97c'
p225
aS'http://www.indeed.com/rc/clk?jk=716571ff6cde129e'
p226
aS'http://www.indeed.com/rc/clk?jk=1c461a8aa2b0a095'
p227
aS'http://www.indeed.com/rc/clk?jk=8bd5ea65f2dfdfbd'
p228
aS'http://www.indeed.com/rc/clk?jk=8f8b62ba99454520'
p229
aS'http://www.indeed.com/rc/clk?jk=9aa924b1407935c7'
p230
aS'http://www.indeed.com/rc/clk?jk=253986df2ecef536'
p231
aS'http://www.indeed.com/rc/clk?jk=dde00bbd87e8dfa1'
p232
aS'http://www.indeed.com/rc/clk?jk=c86187b934272aac'
p233
aS'http://www.indeed.com/rc/clk?jk=c35b6e3e448f1a0b'
p234
aS'http://www.indeed.com/rc/clk?jk=42b7392dc359daf1'
p235
aS'http://www.indeed.com/rc/clk?jk=887826ee4a9f9ce2'
p236
aS'http://www.indeed.com/rc/clk?jk=c71998f7cc996aaa'
p237
aS'http://www.indeed.com/rc/clk?jk=b35b71351789e706'
p238
aS'http://www.indeed.com/rc/clk?jk=5e4122b4e399341b'
p239
aS'http://www.indeed.com/rc/clk?jk=8cb76742ef9234c5'
p240
aS'http://www.indeed.com/rc/clk?jk=673647ad92e4826b'
p241
a.